target datalayout = "e-m:e-p270:32:32-p271:32:32-p272:64:64-i64:64-i128:128-f80:128-n8:16:32:64-S128"
target triple = "x86_64-pc-linux-gnu"

%struct.H5C_class_t = type { i32, ptr, i32, i32, ptr, ptr, ptr, ptr, ptr, ptr, ptr, ptr, ptr, ptr }
%struct.H5B2_hdr_t = type { %struct.H5C_cache_entry_t, %struct.H5B2_node_ptr_t, i8, i8, i32, i32, i16, i8, ptr, i64, i64, i64, i64, i8, i8, i8, ptr, ptr, ptr, ptr, ptr, ptr, ptr, i8, ptr, ptr, i64, ptr, ptr }
%struct.H5C_cache_entry_t = type { ptr, i64, i64, ptr, i8, ptr, i8, i8, i8, i8, i32, i8, i8, i8, i8, i8, i32, ptr, i32, i32, i32, i32, i32, i8, i8, ptr, ptr, ptr, ptr, ptr, ptr, i8, i32, i8, i64, ptr, i64, i64, i32, i8, i32, i32, i8, ptr, ptr, ptr }
%struct.H5B2_node_ptr_t = type { i64, i16, i64 }

@.str.1 = private unnamed_addr constant [101 x i8] c"generated/home/dtcxzyw/WorkSpace/Projects/compilers/llvm-opt-benchmark/bench/hdf5/hdf5/src/H5B2hdr.c\00", align 1
@H5E_BTREE_g = external global i64, align 8
@H5AC_BT2_HDR = external constant [1 x %struct.H5C_class_t], align 16
@.str.16 = private unnamed_addr constant [35 x i8] c"unable to release v2 B-tree header\00", align 1
@H5E_CANTUNPROTECT_g = external global i64, align 8
@.str.22 = private unnamed_addr constant [53 x i8] c"unable to unprotect v2 B-tree header, address = %llu\00", align 1
@__func__.H5B2__hdr_unprotect = private unnamed_addr constant [20 x i8] c"H5B2__hdr_unprotect\00", align 1
@__func__.H5B2__hdr_delete = private unnamed_addr constant [17 x i8] c"H5B2__hdr_delete\00", align 1
@H5E_CANTDELETE_g = external global i64, align 8
@.str.27 = private unnamed_addr constant [30 x i8] c"unable to delete B-tree nodes\00", align 1

; Function Attrs: nounwind uwtable
define i32 @H5B2__hdr_unprotect(ptr noundef %0, i32 noundef %1) #0 {
  %3 = alloca ptr, align 8
  %4 = alloca i32, align 4
  %5 = alloca i32, align 4
  %6 = alloca i8, align 1
  store ptr %0, ptr %3, align 8
  store i32 %1, ptr %4, align 4
  store i32 0, ptr %5, align 4
  store i8 0, ptr %6, align 1
  %7 = load ptr, ptr %3, align 8
  %8 = getelementptr inbounds %struct.H5B2_hdr_t, ptr %7, i32 0, i32 8
  %9 = load ptr, ptr %8, align 8
  %10 = load ptr, ptr %3, align 8
  %11 = getelementptr inbounds %struct.H5B2_hdr_t, ptr %10, i32 0, i32 9
  %12 = load i64, ptr %11, align 8
  %13 = load ptr, ptr %3, align 8
  %14 = load i32, ptr %4, align 4
  %15 = call i32 @H5AC_unprotect(ptr noundef %9, ptr noundef @H5AC_BT2_HDR, i64 noundef %12, ptr noundef %13, i32 noundef %14)
  %16 = icmp slt i32 %15, 0
  br i1 %16, label %17, label %35

17:                                               ; preds = %2
  br label %18

18:                                               ; preds = %17
  br label %19

19:                                               ; preds = %18
  br label %20

20:                                               ; preds = %19
  %21 = load i64, ptr @H5E_BTREE_g, align 8
  %22 = load i64, ptr @H5E_CANTUNPROTECT_g, align 8
  %23 = load ptr, ptr %3, align 8
  %24 = getelementptr inbounds %struct.H5B2_hdr_t, ptr %23, i32 0, i32 9
  %25 = load i64, ptr %24, align 8
  %26 = call i32 (ptr, ptr, i32, i64, i64, ptr, ...) @H5E_printf_stack(ptr noundef @.str.1, ptr noundef @__func__.H5B2__hdr_unprotect, i32 noundef 553, i64 noundef %21, i64 noundef %22, ptr noundef @.str.22, i64 noundef %25)
  br label %27

27:                                               ; preds = %20
  store i8 1, ptr %6, align 1
  %28 = load i8, ptr %6, align 1
  %29 = trunc i8 %28 to i1
  %30 = zext i1 %29 to i8
  store i8 %30, ptr %6, align 1
  br label %31

31:                                               ; preds = %27
  br label %32

32:                                               ; preds = %31
  store i32 -1, ptr %5, align 4
  br label %36

33:                                               ; No predecessors!
  br label %34

34:                                               ; preds = %33
  br label %35

35:                                               ; preds = %34, %2
  br label %36

36:                                               ; preds = %35, %32
  %37 = load i32, ptr %5, align 4
  ret i32 %37
}

; Function Attrs: nounwind uwtable
define i32 @H5B2__hdr_delete(ptr noundef %0) #0 {
  %2 = alloca ptr, align 8
  %3 = alloca i32, align 4
  %4 = alloca i32, align 4
  %5 = alloca i8, align 1
  store ptr %0, ptr %2, align 8
  store i32 0, ptr %3, align 4
  store i32 0, ptr %4, align 4
  store i8 0, ptr %5, align 1
  %6 = load ptr, ptr %2, align 8
  %7 = getelementptr inbounds %struct.H5B2_hdr_t, ptr %6, i32 0, i32 1
  %8 = getelementptr inbounds %struct.H5B2_node_ptr_t, ptr %7, i32 0, i32 0
  %9 = load i64, ptr %8, align 8
  %10 = icmp ne i64 %9, -1
  br i1 %10, label %11, label %43

11:                                               ; preds = %1
  %12 = load ptr, ptr %2, align 8
  %13 = load ptr, ptr %2, align 8
  %14 = getelementptr inbounds %struct.H5B2_hdr_t, ptr %13, i32 0, i32 6
  %15 = load i16, ptr %14, align 4
  %16 = load ptr, ptr %2, align 8
  %17 = getelementptr inbounds %struct.H5B2_hdr_t, ptr %16, i32 0, i32 1
  %18 = load ptr, ptr %2, align 8
  %19 = load ptr, ptr %2, align 8
  %20 = getelementptr inbounds %struct.H5B2_hdr_t, ptr %19, i32 0, i32 16
  %21 = load ptr, ptr %20, align 8
  %22 = load ptr, ptr %2, align 8
  %23 = getelementptr inbounds %struct.H5B2_hdr_t, ptr %22, i32 0, i32 17
  %24 = load ptr, ptr %23, align 8
  %25 = call i32 @H5B2__delete_node(ptr noundef %12, i16 noundef zeroext %15, ptr noundef %17, ptr noundef %18, ptr noundef %21, ptr noundef %24)
  %26 = icmp slt i32 %25, 0
  br i1 %26, label %27, label %42

27:                                               ; preds = %11
  br label %28

28:                                               ; preds = %27
  br label %29

29:                                               ; preds = %28
  br label %30

30:                                               ; preds = %29
  %31 = load i64, ptr @H5E_BTREE_g, align 8
  %32 = load i64, ptr @H5E_CANTDELETE_g, align 8
  %33 = call i32 (ptr, ptr, i32, i64, i64, ptr, ...) @H5E_printf_stack(ptr noundef @.str.1, ptr noundef @__func__.H5B2__hdr_delete, i32 noundef 671, i64 noundef %31, i64 noundef %32, ptr noundef @.str.27)
  br label %34

34:                                               ; preds = %30
  store i8 1, ptr %5, align 1
  %35 = load i8, ptr %5, align 1
  %36 = trunc i8 %35 to i1
  %37 = zext i1 %36 to i8
  store i8 %37, ptr %5, align 1
  br label %38

38:                                               ; preds = %34
  br label %39

39:                                               ; preds = %38
  store i32 -1, ptr %4, align 4
  br label %46

40:                                               ; No predecessors!
  br label %41

41:                                               ; preds = %40
  br label %42

42:                                               ; preds = %41, %11
  br label %43

43:                                               ; preds = %42, %1
  %44 = load i32, ptr %3, align 4
  %45 = or i32 %44, 259
  store i32 %45, ptr %3, align 4
  br label %46

46:                                               ; preds = %43, %39
  %47 = load ptr, ptr %2, align 8
  %48 = load i32, ptr %3, align 4
  %49 = call i32 @H5B2__hdr_unprotect(ptr noundef %47, i32 noundef %48)
  %50 = icmp slt i32 %49, 0
  br i1 %50, label %51, label %64

51:                                               ; preds = %46
  br label %52

52:                                               ; preds = %51
  br label %53

53:                                               ; preds = %52
  br label %54

54:                                               ; preds = %53
  %55 = load i64, ptr @H5E_BTREE_g, align 8
  %56 = load i64, ptr @H5E_CANTUNPROTECT_g, align 8
  %57 = call i32 (ptr, ptr, i32, i64, i64, ptr, ...) @H5E_printf_stack(ptr noundef @.str.1, ptr noundef @__func__.H5B2__hdr_delete, i32 noundef 679, i64 noundef %55, i64 noundef %56, ptr noundef @.str.16)
  br label %58

58:                                               ; preds = %54
  store i8 1, ptr %5, align 1
  %59 = load i8, ptr %5, align 1
  %60 = trunc i8 %59 to i1
  %61 = zext i1 %60 to i8
  store i8 %61, ptr %5, align 1
  br label %62

62:                                               ; preds = %58
  store i32 -1, ptr %4, align 4
  br label %63

63:                                               ; preds = %62
  br label %64

64:                                               ; preds = %63, %46
  %65 = load i32, ptr %4, align 4
  ret i32 %65
}