; Function Attrs: nounwind uwtable
define range(i32 -1, 1) i32 @H5B2__hdr_delete(ptr noundef %0) local_unnamed_addr #0 {
  %2 = getelementptr inbounds i8, ptr %0, i64 248
  %3 = load i64, ptr %2, align 8
  %.not = icmp eq i64 %3, -1
  br i1 %.not, label %.split, label %4

4:                                                ; preds = %1
  %5 = getelementptr inbounds i8, ptr %0, i64 284
  %6 = load i16, ptr %5, align 4
  %7 = getelementptr inbounds i8, ptr %0, i64 336
  %8 = load ptr, ptr %7, align 8
  %9 = getelementptr inbounds i8, ptr %0, i64 344
  %10 = load ptr, ptr %9, align 8
  %11 = tail call i32 @H5B2__delete_node(ptr noundef nonnull %0, i16 noundef zeroext %6, ptr noundef nonnull %2, ptr noundef nonnull %0, ptr noundef %8, ptr noundef %10) #4
  %12 = icmp slt i32 %11, 0
  br i1 %12, label %.split14, label %.split

.split14:                                         ; preds = %4
  %13 = load i64, ptr @H5E_BTREE_g, align 8
  %14 = load i64, ptr @H5E_CANTDELETE_g, align 8
  %15 = tail call i32 (ptr, ptr, i32, i64, i64, ptr, ...) @H5E_printf_stack(ptr noundef nonnull @.str.1, ptr noundef nonnull @__func__.H5B2__hdr_delete, i32 noundef 671, i64 noundef %13, i64 noundef %14, ptr noundef nonnull @.str.27) #4
  %16 = getelementptr inbounds i8, ptr %0, i64 288
  %17 = load ptr, ptr %16, align 8
  %18 = getelementptr inbounds i8, ptr %0, i64 296
  %19 = load i64, ptr %18, align 8
  %20 = tail call i32 @H5AC_unprotect(ptr noundef %17, ptr noundef nonnull @H5AC_BT2_HDR, i64 noundef %19, ptr noundef nonnull %0, i32 noundef 0) #4
  %21 = icmp slt i32 %20, 0
  br i1 %21, label %28, label %H5B2__hdr_unprotect.exit

.split:                                           ; preds = %1, %4
  %22 = getelementptr inbounds i8, ptr %0, i64 288
  %23 = load ptr, ptr %22, align 8
  %24 = getelementptr inbounds i8, ptr %0, i64 296
  %25 = load i64, ptr %24, align 8
  %26 = tail call i32 @H5AC_unprotect(ptr noundef %23, ptr noundef nonnull @H5AC_BT2_HDR, i64 noundef %25, ptr noundef nonnull %0, i32 noundef 259) #4
  %27 = icmp slt i32 %26, 0
  br i1 %27, label %28, label %H5B2__hdr_unprotect.exit

28:                                               ; preds = %.split, %.split14
  %.sink21 = phi ptr [ %18, %.split14 ], [ %24, %.split ]
  %29 = load i64, ptr @H5E_BTREE_g, align 8
  %30 = load i64, ptr @H5E_CANTUNPROTECT_g, align 8
  %31 = load i64, ptr %.sink21, align 8
  %32 = tail call i32 (ptr, ptr, i32, i64, i64, ptr, ...) @H5E_printf_stack(ptr noundef nonnull @.str.1, ptr noundef nonnull @__func__.H5B2__hdr_unprotect, i32 noundef 553, i64 noundef %29, i64 noundef %30, ptr noundef nonnull @.str.22, i64 noundef %31) #4
  %33 = load i64, ptr @H5E_BTREE_g, align 8
  %34 = load i64, ptr @H5E_CANTUNPROTECT_g, align 8
  %35 = tail call i32 (ptr, ptr, i32, i64, i64, ptr, ...) @H5E_printf_stack(ptr noundef nonnull @.str.1, ptr noundef nonnull @__func__.H5B2__hdr_delete, i32 noundef 679, i64 noundef %33, i64 noundef %34, ptr noundef nonnull @.str.16) #4
  br label %H5B2__hdr_unprotect.exit

H5B2__hdr_unprotect.exit:                         ; preds = %.split14, %.split, %28
  %.1 = phi i32 [ -1, %28 ], [ -1, %.split14 ], [ 0, %.split ]
  ret i32 %.1
}